target datalayout = "e-m:e-p270:32:32-p271:32:32-p272:64:64-i64:64-i128:128-f80:128-n8:16:32:64-S128"
target triple = "x86_64-pc-linux-gnu"

%struct.hostrange_t = type { ptr, i64, i64, i32, i8 }

@alpha_num = dso_local global ptr @.str, align 8
@.str.7 = private unnamed_addr constant [11 x i8] c"hostlist.c\00", align 1
@.str.11 = private unnamed_addr constant [3 x i8] c"%s\00", align 1
@.str.20 = private unnamed_addr constant [8 x i8] c"%s%0*lu\00", align 1
@__func__.hostrange_shift = private unnamed_addr constant [16 x i8] c"hostrange_shift\00", align 1

; Function Attrs: nounwind uwtable
define dso_local void @hostlist_parse_int_to_array(i32 noundef %0, ptr noundef %1, i32 noundef %2, i32 noundef %3) #0 {
  %5 = alloca i32, align 4
  %6 = alloca ptr, align 8
  %7 = alloca i32, align 4
  %8 = alloca i32, align 4
  %9 = alloca i32, align 4
  store i32 %0, ptr %5, align 4
  store ptr %1, ptr %6, align 8
  store i32 %2, ptr %7, align 4
  store i32 %3, ptr %8, align 4
  call void @llvm.lifetime.start.p0(i64 4, ptr %9) #13
  %10 = load i32, ptr %8, align 4
  %11 = icmp ne i32 %10, 0
  br i1 %11, label %12, label %14

12:                                               ; preds = %4
  %13 = load i32, ptr %8, align 4
  br label %18

14:                                               ; preds = %4
  %15 = load i32, ptr %7, align 4
  %16 = icmp sgt i32 %15, 1
  %17 = select i1 %16, i32 36, i32 10
  br label %18

18:                                               ; preds = %14, %12
  %19 = phi i32 [ %13, %12 ], [ %17, %14 ]
  store i32 %19, ptr %9, align 4
  br label %20

20:                                               ; preds = %32, %18
  %21 = load i32, ptr %7, align 4
  %22 = add nsw i32 %21, -1
  store i32 %22, ptr %7, align 4
  %23 = icmp sge i32 %22, 0
  br i1 %23, label %24, label %36

24:                                               ; preds = %20
  %25 = load i32, ptr %5, align 4
  %26 = load i32, ptr %9, align 4
  %27 = srem i32 %25, %26
  %28 = load ptr, ptr %6, align 8
  %29 = load i32, ptr %7, align 4
  %30 = sext i32 %29 to i64
  %31 = getelementptr inbounds i32, ptr %28, i64 %30
  store i32 %27, ptr %31, align 4
  br label %32

32:                                               ; preds = %24
  %33 = load i32, ptr %9, align 4
  %34 = load i32, ptr %5, align 4
  %35 = sdiv i32 %34, %33
  store i32 %35, ptr %5, align 4
  br label %20, !llvm.loop !48

36:                                               ; preds = %20
  call void @llvm.lifetime.end.p0(i64 4, ptr %9) #13
  ret void
}

; Function Attrs: nounwind uwtable
define internal i64 @hostrange_count(ptr noundef %0) #0 {
  %2 = alloca i64, align 8
  %3 = alloca ptr, align 8
  store ptr %0, ptr %3, align 8
  %4 = load ptr, ptr %3, align 8
  %5 = getelementptr inbounds nuw %struct.hostrange_t, ptr %4, i32 0, i32 4
  %6 = load i8, ptr %5, align 4, !range !12, !noundef !13
  %7 = trunc i8 %6 to i1
  br i1 %7, label %8, label %9

8:                                                ; preds = %1
  store i64 1, ptr %2, align 8
  br label %18

9:                                                ; preds = %1
  %10 = load ptr, ptr %3, align 8
  %11 = getelementptr inbounds nuw %struct.hostrange_t, ptr %10, i32 0, i32 2
  %12 = load i64, ptr %11, align 8
  %13 = load ptr, ptr %3, align 8
  %14 = getelementptr inbounds nuw %struct.hostrange_t, ptr %13, i32 0, i32 1
  %15 = load i64, ptr %14, align 8
  %16 = sub i64 %12, %15
  %17 = add i64 %16, 1
  store i64 %17, ptr %2, align 8
  br label %18

18:                                               ; preds = %9, %8
  %19 = load i64, ptr %2, align 8
  ret i64 %19
}

; Function Attrs: nounwind uwtable
define internal ptr @hostrange_shift(ptr noundef %0, i32 noundef %1) #0 {
  %3 = alloca ptr, align 8
  %4 = alloca i32, align 4
  %5 = alloca i64, align 8
  %6 = alloca ptr, align 8
  %7 = alloca i32, align 4
  %8 = alloca i32, align 4
  %9 = alloca ptr, align 8
  %10 = alloca i64, align 8
  store ptr %0, ptr %3, align 8
  store i32 %1, ptr %4, align 4
  call void @llvm.lifetime.start.p0(i64 8, ptr %5) #13
  store i64 0, ptr %5, align 8
  call void @llvm.lifetime.start.p0(i64 8, ptr %6) #13
  store ptr null, ptr %6, align 8
  %11 = load i32, ptr %4, align 4
  %12 = icmp ne i32 %11, 0
  br i1 %12, label %16, label %13

13:                                               ; preds = %2
  %14 = call zeroext i16 @slurmdb_setup_cluster_dims()
  %15 = zext i16 %14 to i32
  store i32 %15, ptr %4, align 4
  br label %16

16:                                               ; preds = %13, %2
  %17 = load ptr, ptr %3, align 8
  %18 = getelementptr inbounds nuw %struct.hostrange_t, ptr %17, i32 0, i32 4
  %19 = load i8, ptr %18, align 4, !range !12, !noundef !13
  %20 = trunc i8 %19 to i1
  br i1 %20, label %21, label %36

21:                                               ; preds = %16
  %22 = load ptr, ptr %3, align 8
  %23 = getelementptr inbounds nuw %struct.hostrange_t, ptr %22, i32 0, i32 1
  %24 = load i64, ptr %23, align 8
  %25 = add i64 %24, 1
  store i64 %25, ptr %23, align 8
  %26 = load ptr, ptr %3, align 8
  %27 = getelementptr inbounds nuw %struct.hostrange_t, ptr %26, i32 0, i32 0
  %28 = load ptr, ptr %27, align 8
  %29 = call noalias ptr @strdup(ptr noundef %28) #13
  store ptr %29, ptr %6, align 8
  %30 = icmp ne ptr %29, null
  br i1 %30, label %35, label %31

31:                                               ; preds = %21
  br label %32

32:                                               ; preds = %31
  call void @log_oom(ptr noundef @.str.7, i32 noundef 815, ptr noundef @__func__.hostrange_shift)
  call void @abort() #17
  unreachable

33:                                               ; No predecessors!
  br label %34

34:                                               ; preds = %33
  br label %35

35:                                               ; preds = %34, %21
  br label %139

36:                                               ; preds = %16
  %37 = load ptr, ptr %3, align 8
  %38 = call i64 @hostrange_count(ptr noundef %37)
  %39 = icmp ugt i64 %38, 0
  br i1 %39, label %40, label %138

40:                                               ; preds = %36
  %41 = load ptr, ptr %3, align 8
  %42 = getelementptr inbounds nuw %struct.hostrange_t, ptr %41, i32 0, i32 0
  %43 = load ptr, ptr %42, align 8
  %44 = call i64 @strlen(ptr noundef %43) #16
  %45 = load ptr, ptr %3, align 8
  %46 = getelementptr inbounds nuw %struct.hostrange_t, ptr %45, i32 0, i32 3
  %47 = load i32, ptr %46, align 8
  %48 = sext i32 %47 to i64
  %49 = add i64 %44, %48
  %50 = add i64 %49, 16
  store i64 %50, ptr %5, align 8
  %51 = load i64, ptr %5, align 8
  %52 = call noalias ptr @malloc(i64 noundef %51) #18
  store ptr %52, ptr %6, align 8
  %53 = icmp ne ptr %52, null
  br i1 %53, label %58, label %54

54:                                               ; preds = %40
  br label %55

55:                                               ; preds = %54
  call void @log_oom(ptr noundef @.str.7, i32 noundef 819, ptr noundef @__func__.hostrange_shift)
  call void @abort() #17
  unreachable

56:                                               ; No predecessors!
  br label %57

57:                                               ; preds = %56
  br label %58

58:                                               ; preds = %57, %40
  %59 = load i32, ptr %4, align 4
  %60 = icmp sgt i32 %59, 1
  br i1 %60, label %61, label %123

61:                                               ; preds = %58
  %62 = load ptr, ptr %3, align 8
  %63 = getelementptr inbounds nuw %struct.hostrange_t, ptr %62, i32 0, i32 3
  %64 = load i32, ptr %63, align 8
  %65 = load i32, ptr %4, align 4
  %66 = icmp eq i32 %64, %65
  br i1 %66, label %67, label %123

67:                                               ; preds = %61
  call void @llvm.lifetime.start.p0(i64 4, ptr %7) #13
  store i32 0, ptr %7, align 4
  call void @llvm.lifetime.start.p0(i64 4, ptr %8) #13
  store i32 0, ptr %8, align 4
  %68 = load i32, ptr %4, align 4
  %69 = zext i32 %68 to i64
  %70 = call ptr @llvm.stacksave.p0()
  store ptr %70, ptr %9, align 8
  %71 = alloca i32, i64 %69, align 16
  store i64 %69, ptr %10, align 8
  %72 = load ptr, ptr %3, align 8
  %73 = getelementptr inbounds nuw %struct.hostrange_t, ptr %72, i32 0, i32 1
  %74 = load i64, ptr %73, align 8
  %75 = trunc i64 %74 to i32
  %76 = load i32, ptr %4, align 4
  call void @hostlist_parse_int_to_array(i32 noundef %75, ptr noundef %71, i32 noundef %76, i32 noundef 0)
  %77 = load ptr, ptr %6, align 8
  %78 = load i64, ptr %5, align 8
  %79 = load ptr, ptr %3, align 8
  %80 = getelementptr inbounds nuw %struct.hostrange_t, ptr %79, i32 0, i32 0
  %81 = load ptr, ptr %80, align 8
  %82 = call i32 (ptr, i64, ptr, ...) @snprintf(ptr noundef %77, i64 noundef %78, ptr noundef @.str.11, ptr noundef %81) #13
  store i32 %82, ptr %7, align 4
  %83 = load i32, ptr %7, align 4
  %84 = icmp sge i32 %83, 0
  br i1 %84, label %85, label %117

85:                                               ; preds = %67
  %86 = load i32, ptr %7, align 4
  %87 = load i32, ptr %4, align 4
  %88 = add nsw i32 %86, %87
  %89 = sext i32 %88 to i64
  %90 = load i64, ptr %5, align 8
  %91 = icmp ult i64 %89, %90
  br i1 %91, label %92, label %117

92:                                               ; preds = %85
  br label %93

93:                                               ; preds = %97, %92
  %94 = load i32, ptr %8, align 4
  %95 = load i32, ptr %4, align 4
  %96 = icmp slt i32 %94, %95
  br i1 %96, label %97, label %112

97:                                               ; preds = %93
  %98 = load ptr, ptr @alpha_num, align 8
  %99 = load i32, ptr %8, align 4
  %100 = add nsw i32 %99, 1
  store i32 %100, ptr %8, align 4
  %101 = sext i32 %99 to i64
  %102 = getelementptr inbounds i32, ptr %71, i64 %101
  %103 = load i32, ptr %102, align 4
  %104 = sext i32 %103 to i64
  %105 = getelementptr inbounds i8, ptr %98, i64 %104
  %106 = load i8, ptr %105, align 1
  %107 = load ptr, ptr %6, align 8
  %108 = load i32, ptr %7, align 4
  %109 = add nsw i32 %108, 1
  store i32 %109, ptr %7, align 4
  %110 = sext i32 %108 to i64
  %111 = getelementptr inbounds i8, ptr %107, i64 %110
  store i8 %106, ptr %111, align 1
  br label %93, !llvm.loop !37

112:                                              ; preds = %93
  %113 = load ptr, ptr %6, align 8
  %114 = load i32, ptr %7, align 4
  %115 = sext i32 %114 to i64
  %116 = getelementptr inbounds i8, ptr %113, i64 %115
  store i8 0, ptr %116, align 1
  br label %117

117:                                              ; preds = %112, %85, %67
  %118 = load ptr, ptr %3, align 8
  %119 = getelementptr inbounds nuw %struct.hostrange_t, ptr %118, i32 0, i32 1
  %120 = load i64, ptr %119, align 8
  %121 = add i64 %120, 1
  store i64 %121, ptr %119, align 8
  %122 = load ptr, ptr %9, align 8
  call void @llvm.stackrestore.p0(ptr %122)
  call void @llvm.lifetime.end.p0(i64 4, ptr %8) #13
  call void @llvm.lifetime.end.p0(i64 4, ptr %7) #13
  br label %137

123:                                              ; preds = %61, %58
  %124 = load ptr, ptr %6, align 8
  %125 = load i64, ptr %5, align 8
  %126 = load ptr, ptr %3, align 8
  %127 = getelementptr inbounds nuw %struct.hostrange_t, ptr %126, i32 0, i32 0
  %128 = load ptr, ptr %127, align 8
  %129 = load ptr, ptr %3, align 8
  %130 = getelementptr inbounds nuw %struct.hostrange_t, ptr %129, i32 0, i32 3
  %131 = load i32, ptr %130, align 8
  %132 = load ptr, ptr %3, align 8
  %133 = getelementptr inbounds nuw %struct.hostrange_t, ptr %132, i32 0, i32 1
  %134 = load i64, ptr %133, align 8
  %135 = add i64 %134, 1
  store i64 %135, ptr %133, align 8
  %136 = call i32 (ptr, i64, ptr, ...) @snprintf(ptr noundef %124, i64 noundef %125, ptr noundef @.str.20, ptr noundef %128, i32 noundef %131, i64 noundef %134) #13
  br label %137

137:                                              ; preds = %123, %117
  br label %138

138:                                              ; preds = %137, %36
  br label %139

139:                                              ; preds = %138, %35
  %140 = load ptr, ptr %6, align 8
  call void @llvm.lifetime.end.p0(i64 8, ptr %6) #13
  call void @llvm.lifetime.end.p0(i64 8, ptr %5) #13
  ret ptr %140
}