; Function Attrs: nounwind uwtable
define internal fastcc noalias ptr @hostrange_shift(ptr noundef captures(none) %0, i32 noundef %1) unnamed_addr #0 {
  %.not = icmp eq i32 %1, 0
  br i1 %.not, label %3, label %6

3:                                                ; preds = %2
  %4 = tail call zeroext i16 @slurmdb_setup_cluster_dims() #22
  %5 = zext i16 %4 to i32
  br label %6

6:                                                ; preds = %3, %2
  %.0 = phi i32 [ %1, %2 ], [ %5, %3 ]
  %7 = getelementptr inbounds nuw i8, ptr %0, i64 28
  %8 = load i8, ptr %7, align 4, !range !14, !noundef !15
  %9 = trunc nuw i8 %8 to i1
  br i1 %9, label %10, label %hostrange_count.exit

10:                                               ; preds = %6
  %11 = getelementptr inbounds nuw i8, ptr %0, i64 8
  %12 = load i64, ptr %11, align 8
  %13 = add i64 %12, 1
  store i64 %13, ptr %11, align 8
  %14 = load ptr, ptr %0, align 8
  %15 = tail call noalias ptr @strdup(ptr noundef %14) #22
  %.not44 = icmp eq ptr %15, null
  br i1 %.not44, label %16, label %67

16:                                               ; preds = %10
  tail call void @log_oom(ptr noundef nonnull @.str.7, i32 noundef 815, ptr noundef nonnull @__func__.hostrange_shift) #22
  tail call void @abort() #25
  unreachable

hostrange_count.exit:                             ; preds = %6
  %17 = getelementptr inbounds nuw i8, ptr %0, i64 16
  %18 = load i64, ptr %17, align 8
  %19 = getelementptr inbounds nuw i8, ptr %0, i64 8
  %20 = load i64, ptr %19, align 8
  %21 = add i64 %18, 1
  %.not42 = icmp eq i64 %21, %20
  br i1 %.not42, label %67, label %22

22:                                               ; preds = %hostrange_count.exit
  %23 = load ptr, ptr %0, align 8
  %24 = tail call i64 @strlen(ptr noundef nonnull dereferenceable(1) %23) #23
  %25 = getelementptr inbounds nuw i8, ptr %0, i64 24
  %26 = load i32, ptr %25, align 8
  %27 = sext i32 %26 to i64
  %28 = add i64 %24, 16
  %29 = add i64 %28, %27
  %30 = tail call noalias ptr @malloc(i64 noundef %29) #26
  %.not43 = icmp eq ptr %30, null
  br i1 %.not43, label %31, label %32

31:                                               ; preds = %22
  tail call void @log_oom(ptr noundef nonnull @.str.7, i32 noundef 819, ptr noundef nonnull @__func__.hostrange_shift) #22
  tail call void @abort() #25
  unreachable

32:                                               ; preds = %22
  %33 = icmp sgt i32 %.0, 1
  %34 = icmp eq i32 %26, %.0
  %or.cond47 = and i1 %33, %34
  br i1 %or.cond47, label %.lr.ph.preheader.i, label %64

.lr.ph.preheader.i:                               ; preds = %32
  %35 = zext nneg i32 %.0 to i64
  %36 = tail call ptr @llvm.stacksave.p0()
  %37 = alloca i32, i64 %35, align 16
  %38 = load i64, ptr %19, align 8
  %39 = trunc i64 %38 to i32
  br label %.lr.ph.i

.lr.ph.i:                                         ; preds = %.lr.ph.i, %.lr.ph.preheader.i
  %indvars.iv.i = phi i64 [ %35, %.lr.ph.preheader.i ], [ %indvars.iv.next.i, %.lr.ph.i ]
  %.012.i = phi i32 [ %39, %.lr.ph.preheader.i ], [ %42, %.lr.ph.i ]
  %indvars.iv.next.i = add nsw i64 %indvars.iv.i, -1
  %40 = srem i32 %.012.i, 36
  %41 = getelementptr inbounds nuw i32, ptr %37, i64 %indvars.iv.next.i
  store i32 %40, ptr %41, align 4
  %42 = sdiv i32 %.012.i, 36
  %43 = icmp samesign ugt i64 %indvars.iv.i, 1
  br i1 %43, label %.lr.ph.i, label %hostlist_parse_int_to_array.exit, !llvm.loop !52

hostlist_parse_int_to_array.exit:                 ; preds = %.lr.ph.i
  %44 = load ptr, ptr %0, align 8
  %45 = tail call i32 (ptr, i64, ptr, ...) @snprintf(ptr noundef nonnull %30, i64 noundef %29, ptr noundef nonnull @.str.11, ptr noundef %44) #22
  %46 = icmp sgt i32 %45, -1
  %47 = add nuw nsw i32 %45, %.0
  %48 = zext nneg i32 %47 to i64
  %49 = icmp ugt i64 %29, %48
  %or.cond = select i1 %46, i1 %49, i1 false
  br i1 %or.cond, label %.lr.ph, label %61

.lr.ph:                                           ; preds = %hostlist_parse_int_to_array.exit
  %50 = load ptr, ptr @alpha_num, align 8
  %51 = zext nneg i32 %45 to i64
  br label %52

52:                                               ; preds = %.lr.ph, %52
  %indvars.iv50 = phi i64 [ %51, %.lr.ph ], [ %indvars.iv.next51, %52 ]
  %indvars.iv = phi i64 [ 0, %.lr.ph ], [ %indvars.iv.next, %52 ]
  %indvars.iv.next = add nuw nsw i64 %indvars.iv, 1
  %53 = getelementptr inbounds nuw i32, ptr %37, i64 %indvars.iv
  %54 = load i32, ptr %53, align 4
  %55 = sext i32 %54 to i64
  %56 = getelementptr inbounds i8, ptr %50, i64 %55
  %57 = load i8, ptr %56, align 1
  %indvars.iv.next51 = add nuw nsw i64 %indvars.iv50, 1
  %58 = getelementptr inbounds nuw i8, ptr %30, i64 %indvars.iv50
  store i8 %57, ptr %58, align 1
  %exitcond.not = icmp eq i64 %indvars.iv.next, %35
  br i1 %exitcond.not, label %._crit_edge, label %52, !llvm.loop !54

._crit_edge:                                      ; preds = %52
  %59 = and i64 %indvars.iv.next51, 4294967295
  %60 = getelementptr inbounds nuw i8, ptr %30, i64 %59
  store i8 0, ptr %60, align 1
  br label %61

61:                                               ; preds = %._crit_edge, %hostlist_parse_int_to_array.exit
  %62 = load i64, ptr %19, align 8
  %63 = add i64 %62, 1
  store i64 %63, ptr %19, align 8
  call void @llvm.stackrestore.p0(ptr %36)
  br label %67

64:                                               ; preds = %32
  %65 = add i64 %20, 1
  store i64 %65, ptr %19, align 8
  %66 = tail call i32 (ptr, i64, ptr, ...) @snprintf(ptr noundef nonnull %30, i64 noundef %29, ptr noundef nonnull @.str.20, ptr noundef nonnull %23, i32 noundef %26, i64 noundef %20) #22
  br label %67

67:                                               ; preds = %hostrange_count.exit, %64, %61, %10
  %.037 = phi ptr [ %15, %10 ], [ %30, %61 ], [ %30, %64 ], [ null, %hostrange_count.exit ]
  ret ptr %.037
}